target datalayout = "e-m:e-p270:32:32-p271:32:32-p272:64:64-i64:64-i128:128-f80:128-n8:16:32:64-S128"
target triple = "x86_64-pc-linux-gnu"

%class.btQuantizedBvh = type <{ ptr, %class.btVector3, %class.btVector3, %class.btVector3, i32, i32, i8, [7 x i8], %class.btAlignedObjectArray, %class.btAlignedObjectArray, %class.btAlignedObjectArray.0, %class.btAlignedObjectArray.0, i32, [4 x i8], %class.btAlignedObjectArray.2, i32, [4 x i8] }>
%class.btVector3 = type { [4 x float] }
%class.btAlignedObjectArray = type <{ [4 x i8], i32, i32, [4 x i8], ptr, i8, [7 x i8] }>
%class.btAlignedObjectArray.0 = type <{ [4 x i8], i32, i32, [4 x i8], ptr, i8, [7 x i8] }>
%class.btAlignedObjectArray.2 = type <{ [4 x i8], i32, i32, [4 x i8], ptr, i8, [7 x i8] }>

; Function Attrs: mustprogress uwtable
define dso_local void @_ZNK14btQuantizedBvh29reportBoxCastOverlappingNodexEP21btNodeOverlapCallbackRK9btVector3S4_S4_S4_(ptr noundef nonnull align 8 dereferenceable(244) %0, ptr noundef %1, ptr noundef nonnull align 4 dereferenceable(16) %2, ptr noundef nonnull align 4 dereferenceable(16) %3, ptr noundef nonnull align 4 dereferenceable(16) %4, ptr noundef nonnull align 4 dereferenceable(16) %5) #2 align 2 {
  %7 = alloca ptr, align 8
  %8 = alloca ptr, align 8
  %9 = alloca ptr, align 8
  %10 = alloca ptr, align 8
  %11 = alloca ptr, align 8
  %12 = alloca ptr, align 8
  store ptr %0, ptr %7, align 8, !tbaa !12
  store ptr %1, ptr %8, align 8, !tbaa !80
  store ptr %2, ptr %9, align 8, !tbaa !35
  store ptr %3, ptr %10, align 8, !tbaa !35
  store ptr %4, ptr %11, align 8, !tbaa !35
  store ptr %5, ptr %12, align 8, !tbaa !35
  %13 = load ptr, ptr %7, align 8
  %14 = getelementptr inbounds nuw %class.btQuantizedBvh, ptr %13, i32 0, i32 6
  %15 = load i8, ptr %14, align 8, !tbaa !30, !range !45, !noundef !46
  %16 = trunc i8 %15 to i1
  br i1 %16, label %17, label %25

17:                                               ; preds = %6
  %18 = load ptr, ptr %8, align 8, !tbaa !80
  %19 = load ptr, ptr %9, align 8, !tbaa !35
  %20 = load ptr, ptr %10, align 8, !tbaa !35
  %21 = load ptr, ptr %11, align 8, !tbaa !35
  %22 = load ptr, ptr %12, align 8, !tbaa !35
  %23 = getelementptr inbounds nuw %class.btQuantizedBvh, ptr %13, i32 0, i32 5
  %24 = load i32, ptr %23, align 4, !tbaa !47
  call void @_ZNK14btQuantizedBvh36walkStacklessQuantizedTreeAgainstRayEP21btNodeOverlapCallbackRK9btVector3S4_S4_S4_ii(ptr noundef nonnull align 8 dereferenceable(244) %13, ptr noundef %18, ptr noundef nonnull align 4 dereferenceable(16) %19, ptr noundef nonnull align 4 dereferenceable(16) %20, ptr noundef nonnull align 4 dereferenceable(16) %21, ptr noundef nonnull align 4 dereferenceable(16) %22, i32 noundef 0, i32 noundef %24)
  br label %33

25:                                               ; preds = %6
  %26 = load ptr, ptr %8, align 8, !tbaa !80
  %27 = load ptr, ptr %9, align 8, !tbaa !35
  %28 = load ptr, ptr %10, align 8, !tbaa !35
  %29 = load ptr, ptr %11, align 8, !tbaa !35
  %30 = load ptr, ptr %12, align 8, !tbaa !35
  %31 = getelementptr inbounds nuw %class.btQuantizedBvh, ptr %13, i32 0, i32 5
  %32 = load i32, ptr %31, align 4, !tbaa !47
  call void @_ZNK14btQuantizedBvh27walkStacklessTreeAgainstRayEP21btNodeOverlapCallbackRK9btVector3S4_S4_S4_ii(ptr noundef nonnull align 8 dereferenceable(244) %13, ptr noundef %26, ptr noundef nonnull align 4 dereferenceable(16) %27, ptr noundef nonnull align 4 dereferenceable(16) %28, ptr noundef nonnull align 4 dereferenceable(16) %29, ptr noundef nonnull align 4 dereferenceable(16) %30, i32 noundef 0, i32 noundef %32)
  br label %33

33:                                               ; preds = %25, %17
  ret void
}