; Function Attrs: mustprogress uwtable
define dso_local void @_ZNK14btQuantizedBvh29reportBoxCastOverlappingNodexEP21btNodeOverlapCallbackRK9btVector3S4_S4_S4_(ptr noundef nonnull readonly align 8 captures(none) dereferenceable(244) %0, ptr noundef %1, ptr noundef nonnull readonly align 4 captures(none) dereferenceable(16) %2, ptr noundef nonnull readonly align 4 captures(none) dereferenceable(16) %3, ptr noundef nonnull readonly align 4 captures(none) dereferenceable(16) %4, ptr noundef nonnull readonly align 4 captures(none) dereferenceable(16) %5) local_unnamed_addr #2 align 2 {
  %7 = getelementptr inbounds nuw i8, ptr %0, i64 64
  %8 = load i8, ptr %7, align 8, !tbaa !24, !range !46, !noundef !47
  %9 = trunc nuw i8 %8 to i1
  br i1 %9, label %10, label %13

10:                                               ; preds = %6
  %11 = getelementptr inbounds nuw i8, ptr %0, i64 60
  %12 = load i32, ptr %11, align 4, !tbaa !49
  tail call void @_ZNK14btQuantizedBvh36walkStacklessQuantizedTreeAgainstRayEP21btNodeOverlapCallbackRK9btVector3S4_S4_S4_ii(ptr noundef nonnull align 8 dereferenceable(244) %0, ptr noundef %1, ptr noundef nonnull align 4 dereferenceable(16) %2, ptr noundef nonnull align 4 dereferenceable(16) %3, ptr noundef nonnull align 4 dereferenceable(16) %4, ptr noundef nonnull align 4 dereferenceable(16) %5, i32 noundef 0, i32 noundef %12)
  br label %14

13:                                               ; preds = %6
  tail call void @_ZNK14btQuantizedBvh27walkStacklessTreeAgainstRayEP21btNodeOverlapCallbackRK9btVector3S4_S4_S4_ii(ptr noundef nonnull align 8 dereferenceable(244) %0, ptr noundef %1, ptr noundef nonnull align 4 dereferenceable(16) %2, ptr noundef nonnull align 4 dereferenceable(16) %3, ptr noundef nonnull align 4 dereferenceable(16) %4, ptr noundef nonnull align 4 dereferenceable(16) %5, i32 poison, i32 poison)
  br label %14

14:                                               ; preds = %13, %10
  ret void
}